target datalayout = "e-m:e-p270:32:32-p271:32:32-p272:64:64-i64:64-i128:128-f80:128-n8:16:32:64-S128"
target triple = "x86_64-pc-linux-gnu"

%struct.lua_State = type { ptr, i8, i8, i8, i8, i16, %union.StkIdRel, ptr, ptr, %union.StkIdRel, %union.StkIdRel, ptr, %union.StkIdRel, ptr, ptr, ptr, %struct.CallInfo, ptr, i64, i32, i32, i32, i32, i32, %struct.anon.2 }
%union.StkIdRel = type { ptr }
%struct.CallInfo = type { %union.StkIdRel, %union.StkIdRel, ptr, ptr, %union.anon, %union.anon.1, i32 }
%union.anon = type { %struct.anon.0 }
%struct.anon.0 = type { ptr, i64, i64 }
%union.anon.1 = type { i32 }
%struct.anon.2 = type { i32, i32 }
%struct.TValue = type { %union.Value, i8 }
%union.Value = type { ptr }

; Function Attrs: nounwind uwtable
define hidden i32 @luaT_callorderTM(ptr noundef %0, ptr noundef %1, ptr noundef %2, i32 noundef %3) #0 {
  %5 = alloca ptr, align 8
  %6 = alloca ptr, align 8
  %7 = alloca ptr, align 8
  %8 = alloca i32, align 4
  %9 = alloca i32, align 4
  store ptr %0, ptr %5, align 8, !tbaa !4
  store ptr %1, ptr %6, align 8, !tbaa !28
  store ptr %2, ptr %7, align 8, !tbaa !28
  store i32 %3, ptr %8, align 4, !tbaa !9
  call void @llvm.lifetime.start.p0(i64 4, ptr %9) #6
  %10 = load ptr, ptr %5, align 8, !tbaa !4
  %11 = load ptr, ptr %6, align 8, !tbaa !28
  %12 = load ptr, ptr %7, align 8, !tbaa !28
  %13 = load ptr, ptr %5, align 8, !tbaa !4
  %14 = getelementptr inbounds nuw %struct.lua_State, ptr %13, i32 0, i32 6
  %15 = load ptr, ptr %14, align 8, !tbaa !36
  %16 = load i32, ptr %8, align 4, !tbaa !9
  %17 = call i32 @callbinTM(ptr noundef %10, ptr noundef %11, ptr noundef %12, ptr noundef %15, i32 noundef %16)
  store i32 %17, ptr %9, align 4, !tbaa !9
  %18 = load i32, ptr %9, align 4, !tbaa !9
  %19 = icmp sge i32 %18, 0
  br i1 %19, label %20, label %31

20:                                               ; preds = %4
  %21 = load i32, ptr %9, align 4, !tbaa !9
  %22 = icmp eq i32 %21, 1
  br i1 %22, label %27, label %23

23:                                               ; preds = %20
  %24 = load i32, ptr %9, align 4, !tbaa !9
  %25 = and i32 %24, 15
  %26 = icmp eq i32 %25, 0
  br label %27

27:                                               ; preds = %23, %20
  %28 = phi i1 [ true, %20 ], [ %26, %23 ]
  %29 = xor i1 %28, true
  %30 = zext i1 %29 to i32
  call void @llvm.lifetime.end.p0(i64 4, ptr %9) #6
  ret i32 %30

31:                                               ; preds = %4
  %32 = load ptr, ptr %5, align 8, !tbaa !4
  %33 = load ptr, ptr %6, align 8, !tbaa !28
  %34 = load ptr, ptr %7, align 8, !tbaa !28
  call void @luaG_ordererror(ptr noundef %32, ptr noundef %33, ptr noundef %34) #7
  unreachable
}

; Function Attrs: nounwind uwtable
define hidden i32 @luaT_callorderiTM(ptr noundef %0, ptr noundef %1, i32 noundef %2, i32 noundef %3, i32 noundef %4, i32 noundef %5) #0 {
  %7 = alloca ptr, align 8
  %8 = alloca ptr, align 8
  %9 = alloca i32, align 4
  %10 = alloca i32, align 4
  %11 = alloca i32, align 4
  %12 = alloca i32, align 4
  %13 = alloca %struct.TValue, align 8
  %14 = alloca ptr, align 8
  %15 = alloca ptr, align 8
  %16 = alloca ptr, align 8
  store ptr %0, ptr %7, align 8, !tbaa !4
  store ptr %1, ptr %8, align 8, !tbaa !28
  store i32 %2, ptr %9, align 4, !tbaa !9
  store i32 %3, ptr %10, align 4, !tbaa !9
  store i32 %4, ptr %11, align 4, !tbaa !9
  store i32 %5, ptr %12, align 4, !tbaa !9
  call void @llvm.lifetime.start.p0(i64 16, ptr %13) #6
  call void @llvm.lifetime.start.p0(i64 8, ptr %14) #6
  %17 = load i32, ptr %11, align 4, !tbaa !9
  %18 = icmp ne i32 %17, 0
  br i1 %18, label %19, label %26

19:                                               ; preds = %6
  call void @llvm.lifetime.start.p0(i64 8, ptr %15) #6
  store ptr %13, ptr %15, align 8, !tbaa !28
  %20 = load i32, ptr %9, align 4, !tbaa !9
  %21 = sitofp i32 %20 to double
  %22 = load ptr, ptr %15, align 8, !tbaa !28
  %23 = getelementptr inbounds nuw %struct.TValue, ptr %22, i32 0, i32 0
  store double %21, ptr %23, align 8, !tbaa !36
  %24 = load ptr, ptr %15, align 8, !tbaa !28
  %25 = getelementptr inbounds nuw %struct.TValue, ptr %24, i32 0, i32 1
  store i8 19, ptr %25, align 8, !tbaa !30
  call void @llvm.lifetime.end.p0(i64 8, ptr %15) #6
  br label %33

26:                                               ; preds = %6
  call void @llvm.lifetime.start.p0(i64 8, ptr %16) #6
  store ptr %13, ptr %16, align 8, !tbaa !28
  %27 = load i32, ptr %9, align 4, !tbaa !9
  %28 = sext i32 %27 to i64
  %29 = load ptr, ptr %16, align 8, !tbaa !28
  %30 = getelementptr inbounds nuw %struct.TValue, ptr %29, i32 0, i32 0
  store i64 %28, ptr %30, align 8, !tbaa !36
  %31 = load ptr, ptr %16, align 8, !tbaa !28
  %32 = getelementptr inbounds nuw %struct.TValue, ptr %31, i32 0, i32 1
  store i8 3, ptr %32, align 8, !tbaa !30
  call void @llvm.lifetime.end.p0(i64 8, ptr %16) #6
  br label %33

33:                                               ; preds = %26, %19
  %34 = load i32, ptr %10, align 4, !tbaa !9
  %35 = icmp ne i32 %34, 0
  br i1 %35, label %36, label %38

36:                                               ; preds = %33
  %37 = load ptr, ptr %8, align 8, !tbaa !28
  store ptr %37, ptr %14, align 8, !tbaa !28
  store ptr %13, ptr %8, align 8, !tbaa !28
  br label %39

38:                                               ; preds = %33
  store ptr %13, ptr %14, align 8, !tbaa !28
  br label %39

39:                                               ; preds = %38, %36
  %40 = load ptr, ptr %7, align 8, !tbaa !4
  %41 = load ptr, ptr %8, align 8, !tbaa !28
  %42 = load ptr, ptr %14, align 8, !tbaa !28
  %43 = load i32, ptr %12, align 4, !tbaa !9
  %44 = call i32 @luaT_callorderTM(ptr noundef %40, ptr noundef %41, ptr noundef %42, i32 noundef %43)
  call void @llvm.lifetime.end.p0(i64 8, ptr %14) #6
  call void @llvm.lifetime.end.p0(i64 16, ptr %13) #6
  ret i32 %44
}