; Function Attrs: nounwind uwtable
define hidden range(i32 0, 2) i32 @luaT_callorderiTM(ptr noundef %0, ptr noundef %1, i32 noundef %2, i32 noundef %3, i32 noundef %4, i32 noundef %5) local_unnamed_addr #0 {
  %7 = alloca %struct.TValue, align 8
  call void @llvm.lifetime.start.p0(i64 16, ptr nonnull %7) #5
  %.not = icmp eq i32 %4, 0
  %8 = sext i32 %2 to i64
  %9 = bitcast i64 %8 to double
  %10 = sitofp i32 %2 to double
  %.sink15 = select i1 %.not, double %9, double %10
  %.sink = select i1 %.not, i8 3, i8 19
  store double %.sink15, ptr %7, align 8, !tbaa !31
  %11 = getelementptr inbounds nuw i8, ptr %7, i64 8
  store i8 %.sink, ptr %11, align 8, !tbaa !24
  %.not13 = icmp eq i32 %3, 0
  %. = select i1 %.not13, ptr %7, ptr %1
  %.14 = select i1 %.not13, ptr %1, ptr %7
  %12 = getelementptr inbounds nuw i8, ptr %0, i64 16
  %13 = load ptr, ptr %12, align 8, !tbaa !31
  %14 = call fastcc i32 @callbinTM(ptr noundef %0, ptr noundef %.14, ptr noundef %., ptr noundef %13, i32 noundef %5)
  %15 = icmp sgt i32 %14, -1
  br i1 %15, label %luaT_callorderTM.exit, label %16

16:                                               ; preds = %6
  call void @luaG_ordererror(ptr noundef nonnull %0, ptr noundef %.14, ptr noundef %.) #6
  unreachable

luaT_callorderTM.exit:                            ; preds = %6
  %17 = icmp ne i32 %14, 1
  %18 = and i32 %14, 15
  %19 = icmp ne i32 %18, 0
  %.not11.i = and i1 %17, %19
  %20 = zext i1 %.not11.i to i32
  call void @llvm.lifetime.end.p0(i64 16, ptr nonnull %7) #5
  ret i32 %20
}